target datalayout = "e-m:e-p270:32:32-p271:32:32-p272:64:64-i64:64-i128:128-f80:128-n8:16:32:64-S128"
target triple = "x86_64-pc-linux-gnu"

%struct._value_string_ext = type { ptr, i32, i32, ptr, ptr }
%struct.expert_field = type { i32, i32 }
%struct.mbim_uuid = type { i8, %struct._e_guid_t }
%struct._e_guid_t = type { i32, i16, i16, [8 x i8] }
%struct.mbim_uuid_ext = type { [4 x i32], ptr, ptr, ptr, ptr }
%struct.nstime_t = type { i64, i32 }
%struct._packet_info = type { ptr, ptr, i32, i32, %struct.nstime_t, %struct.nstime_t, %struct.nstime_t, i32, ptr, ptr, ptr, ptr, %struct._address, %struct._address, %struct._address, %struct._address, %struct._address, %struct._address, i32, ptr, i32, %struct.anon.0, i32, i32, i32, i32, ptr, i32, ptr, ptr, i16, i16, i32, i32, i16, i32, i32, ptr, ptr, ptr, i8, i8, i16, i16, i16, i32, i16, i16, ptr, ptr, ptr, ptr, ptr, i32 }
%struct._address = type { i32, i32, ptr, ptr }
%struct.anon.0 = type { i8, [3 x i8] }

@mbim_uuid_ext_hash = internal global ptr null, align 8
@hf_mbim_multicarrier_current_cid_list_req_uuid = internal global i32 0, align 4
@ei_mbim_unexpected_uuid_value = internal global %struct.expert_field zeroinitializer, align 4
@.str.1966 = private unnamed_addr constant [8 x i8] c"Unknown\00", align 1
@.str.2503 = private unnamed_addr constant [8 x i8] c"%s (%s)\00", align 1
@mbim_service_id_vals_ext = internal global %struct._value_string_ext { ptr @_try_val_to_str_ext_init, i32 0, i32 25, ptr @mbim_service_id_vals, ptr @.str.2504 }, align 8
@.str.2567 = private unnamed_addr constant [51 x i8] c"Unexpected UUID value, should be UUID_MULTICARRIER\00", align 1

; Function Attrs: nounwind uwtable
define internal zeroext i8 @mbim_dissect_service_id_uuid(ptr noundef %0, ptr noundef %1, ptr noundef %2, i32 noundef %3, ptr noundef %4, ptr noundef %5, i32 noundef %6) #0 {
  %8 = alloca i8, align 1
  %9 = alloca ptr, align 8
  %10 = alloca ptr, align 8
  %11 = alloca ptr, align 8
  %12 = alloca i32, align 4
  %13 = alloca ptr, align 8
  %14 = alloca ptr, align 8
  %15 = alloca i32, align 4
  %16 = alloca %struct._e_guid_t, align 4
  %17 = alloca i32, align 4
  %18 = alloca [4 x i32], align 16
  store ptr %0, ptr %9, align 8
  store ptr %1, ptr %10, align 8
  store ptr %2, ptr %11, align 8
  store i32 %3, ptr %12, align 4
  store ptr %4, ptr %13, align 8
  store ptr %5, ptr %14, align 8
  store i32 %6, ptr %15, align 4
  %19 = load i32, ptr %15, align 4
  %20 = icmp ne i32 %19, 0
  br i1 %20, label %21, label %25

21:                                               ; preds = %7
  %22 = load ptr, ptr %9, align 8
  %23 = load ptr, ptr %13, align 8
  %24 = load i32, ptr %23, align 4
  call void @tvb_get_ntohguid(ptr noundef %22, i32 noundef %24, ptr noundef %16)
  br label %29

25:                                               ; preds = %7
  %26 = load ptr, ptr %9, align 8
  %27 = load ptr, ptr %13, align 8
  %28 = load i32, ptr %27, align 4
  call void @tvb_get_letohguid(ptr noundef %26, i32 noundef %28, ptr noundef %16)
  br label %29

29:                                               ; preds = %25, %21
  store i32 0, ptr %17, align 4
  br label %30

30:                                               ; preds = %42, %29
  %31 = load i32, ptr %17, align 4
  %32 = icmp ult i32 %31, 25
  br i1 %32, label %33, label %45

33:                                               ; preds = %30
  %34 = load i32, ptr %17, align 4
  %35 = zext i32 %34 to i64
  %36 = getelementptr [25 x %struct.mbim_uuid], ptr @mbim_uuid_service_id_vals, i64 0, i64 %35
  %37 = getelementptr inbounds %struct.mbim_uuid, ptr %36, i32 0, i32 1
  %38 = call i32 @memcmp(ptr noundef %16, ptr noundef %37, i64 noundef 16) #6
  %39 = icmp eq i32 %38, 0
  br i1 %39, label %40, label %41

40:                                               ; preds = %33
  br label %45

41:                                               ; preds = %33
  br label %42

42:                                               ; preds = %41
  %43 = load i32, ptr %17, align 4
  %44 = add i32 %43, 1
  store i32 %44, ptr %17, align 4
  br label %30, !llvm.loop !7

45:                                               ; preds = %40, %30
  %46 = load i32, ptr %17, align 4
  %47 = icmp eq i32 %46, 25
  br i1 %47, label %48, label %104

48:                                               ; preds = %45
  %49 = load ptr, ptr @mbim_uuid_ext_hash, align 8
  %50 = icmp ne ptr %49, null
  br i1 %50, label %51, label %104

51:                                               ; preds = %48
  %52 = load ptr, ptr %14, align 8
  %53 = icmp ne ptr %52, null
  br i1 %53, label %54, label %104

54:                                               ; preds = %51
  %55 = load ptr, ptr %9, align 8
  %56 = load ptr, ptr %13, align 8
  %57 = load i32, ptr %56, align 4
  %58 = call i32 @tvb_get_ntohl(ptr noundef %55, i32 noundef %57)
  %59 = getelementptr [4 x i32], ptr %18, i64 0, i64 0
  store i32 %58, ptr %59, align 16
  %60 = load ptr, ptr %9, align 8
  %61 = load ptr, ptr %13, align 8
  %62 = load i32, ptr %61, align 4
  %63 = add i32 %62, 4
  %64 = call i32 @tvb_get_ntohl(ptr noundef %60, i32 noundef %63)
  %65 = getelementptr [4 x i32], ptr %18, i64 0, i64 1
  store i32 %64, ptr %65, align 4
  %66 = load ptr, ptr %9, align 8
  %67 = load ptr, ptr %13, align 8
  %68 = load i32, ptr %67, align 4
  %69 = add i32 %68, 8
  %70 = call i32 @tvb_get_ntohl(ptr noundef %66, i32 noundef %69)
  %71 = getelementptr [4 x i32], ptr %18, i64 0, i64 2
  store i32 %70, ptr %71, align 8
  %72 = load ptr, ptr %9, align 8
  %73 = load ptr, ptr %13, align 8
  %74 = load i32, ptr %73, align 4
  %75 = add i32 %74, 12
  %76 = call i32 @tvb_get_ntohl(ptr noundef %72, i32 noundef %75)
  %77 = getelementptr [4 x i32], ptr %18, i64 0, i64 3
  store i32 %76, ptr %77, align 4
  %78 = load ptr, ptr @mbim_uuid_ext_hash, align 8
  %79 = getelementptr inbounds [4 x i32], ptr %18, i64 0, i64 0
  %80 = call ptr @wmem_map_lookup(ptr noundef %78, ptr noundef %79)
  %81 = load ptr, ptr %14, align 8
  store ptr %80, ptr %81, align 8
  %82 = load ptr, ptr %14, align 8
  %83 = load ptr, ptr %82, align 8
  %84 = icmp ne ptr %83, null
  br i1 %84, label %85, label %103

85:                                               ; preds = %54
  %86 = load ptr, ptr %11, align 8
  %87 = load i32, ptr %12, align 4
  %88 = load ptr, ptr %9, align 8
  %89 = load ptr, ptr %13, align 8
  %90 = load i32, ptr %89, align 4
  %91 = load ptr, ptr %14, align 8
  %92 = load ptr, ptr %91, align 8
  %93 = getelementptr inbounds %struct.mbim_uuid_ext, ptr %92, i32 0, i32 1
  %94 = load ptr, ptr %93, align 8
  %95 = load ptr, ptr %10, align 8
  %96 = getelementptr inbounds %struct._packet_info, ptr %95, i32 0, i32 50
  %97 = load ptr, ptr %96, align 8
  %98 = call ptr @guid_to_str(ptr noundef %97, ptr noundef %16)
  %99 = call ptr (ptr, i32, ptr, i32, i32, ptr, ptr, ...) @proto_tree_add_guid_format_value(ptr noundef %86, i32 noundef %87, ptr noundef %88, i32 noundef %90, i32 noundef 16, ptr noundef %16, ptr noundef @.str.2503, ptr noundef %94, ptr noundef %98)
  %100 = load ptr, ptr %13, align 8
  %101 = load i32, ptr %100, align 4
  %102 = add i32 %101, 16
  store i32 %102, ptr %100, align 4
  store i8 -1, ptr %8, align 1
  br label %122

103:                                              ; preds = %54
  br label %104

104:                                              ; preds = %103, %51, %48, %45
  %105 = load ptr, ptr %11, align 8
  %106 = load i32, ptr %12, align 4
  %107 = load ptr, ptr %9, align 8
  %108 = load ptr, ptr %13, align 8
  %109 = load i32, ptr %108, align 4
  %110 = load i32, ptr %17, align 4
  %111 = call ptr @val_to_str_ext_const(i32 noundef %110, ptr noundef @mbim_service_id_vals_ext, ptr noundef @.str.1966)
  %112 = load ptr, ptr %10, align 8
  %113 = getelementptr inbounds %struct._packet_info, ptr %112, i32 0, i32 50
  %114 = load ptr, ptr %113, align 8
  %115 = call ptr @guid_to_str(ptr noundef %114, ptr noundef %16)
  %116 = call ptr (ptr, i32, ptr, i32, i32, ptr, ptr, ...) @proto_tree_add_guid_format_value(ptr noundef %105, i32 noundef %106, ptr noundef %107, i32 noundef %109, i32 noundef 16, ptr noundef %16, ptr noundef @.str.2503, ptr noundef %111, ptr noundef %115)
  %117 = load ptr, ptr %13, align 8
  %118 = load i32, ptr %117, align 4
  %119 = add i32 %118, 16
  store i32 %119, ptr %117, align 4
  %120 = load i32, ptr %17, align 4
  %121 = trunc i32 %120 to i8
  store i8 %121, ptr %8, align 1
  br label %122

122:                                              ; preds = %104, %85
  %123 = load i8, ptr %8, align 1
  ret i8 %123
}

; Function Attrs: nounwind uwtable
define internal void @mbim_dissect_muticarrier_current_cid_list_req(ptr noundef %0, ptr noundef %1, ptr noundef %2, i32 noundef %3) #0 {
  %5 = alloca ptr, align 8
  %6 = alloca ptr, align 8
  %7 = alloca ptr, align 8
  %8 = alloca i32, align 4
  %9 = alloca i8, align 1
  store ptr %0, ptr %5, align 8
  store ptr %1, ptr %6, align 8
  store ptr %2, ptr %7, align 8
  store i32 %3, ptr %8, align 4
  %10 = load ptr, ptr %5, align 8
  %11 = load ptr, ptr %6, align 8
  %12 = load ptr, ptr %7, align 8
  %13 = load i32, ptr @hf_mbim_multicarrier_current_cid_list_req_uuid, align 4
  %14 = call zeroext i8 @mbim_dissect_service_id_uuid(ptr noundef %10, ptr noundef %11, ptr noundef %12, i32 noundef %13, ptr noundef %8, ptr noundef null, i32 noundef 1)
  store i8 %14, ptr %9, align 1
  %15 = load i8, ptr %9, align 1
  %16 = zext i8 %15 to i32
  %17 = icmp ne i32 %16, 7
  br i1 %17, label %18, label %21

18:                                               ; preds = %4
  %19 = load ptr, ptr %6, align 8
  %20 = call ptr (ptr, ptr, ptr, ptr, ...) @expert_add_info_format(ptr noundef %19, ptr noundef null, ptr noundef @ei_mbim_unexpected_uuid_value, ptr noundef @.str.2567)
  br label %21

21:                                               ; preds = %18, %4
  ret void
}