; Function Attrs: nounwind uwtable
define internal fastcc void @mbim_dissect_muticarrier_current_cid_list_req(ptr noundef %0, ptr noundef %1, ptr noundef %2, i32 noundef %3) unnamed_addr #0 {
  %5 = alloca %struct._e_guid_t, align 4
  %6 = load i32, ptr @hf_mbim_multicarrier_current_cid_list_req_uuid, align 4
  call void @llvm.lifetime.start.p0(i64 16, ptr nonnull %5)
  call void @tvb_get_ntohguid(ptr noundef %0, i32 noundef %3, ptr noundef nonnull %5) #10
  br label %7

7:                                                ; preds = %10, %4
  %indvars.iv.i = phi i64 [ 0, %4 ], [ %indvars.iv.next.i, %10 ]
  %8 = getelementptr [25 x %struct.mbim_uuid], ptr @mbim_uuid_service_id_vals, i64 0, i64 %indvars.iv.i, i32 1
  %bcmp.i = call i32 @bcmp(ptr noundef nonnull dereferenceable(16) %5, ptr noundef nonnull dereferenceable(16) %8, i64 16)
  %9 = icmp eq i32 %bcmp.i, 0
  br i1 %9, label %.thread.loopexit.i, label %10

10:                                               ; preds = %7
  %indvars.iv.next.i = add nuw nsw i64 %indvars.iv.i, 1
  %exitcond.not.i = icmp eq i64 %indvars.iv.next.i, 25
  br i1 %exitcond.not.i, label %mbim_dissect_service_id_uuid.exit, label %7, !llvm.loop !7

.thread.loopexit.i:                               ; preds = %7
  %11 = trunc nuw nsw i64 %indvars.iv.i to i32
  br label %mbim_dissect_service_id_uuid.exit

mbim_dissect_service_id_uuid.exit:                ; preds = %10, %.thread.loopexit.i
  %.045.i = phi i32 [ %11, %.thread.loopexit.i ], [ 25, %10 ]
  %12 = call ptr @val_to_str_ext_const(i32 noundef %.045.i, ptr noundef nonnull @mbim_service_id_vals_ext, ptr noundef nonnull @.str.1966) #10
  %13 = getelementptr inbounds nuw i8, ptr %1, i64 408
  %14 = load ptr, ptr %13, align 8
  %15 = call ptr @guid_to_str(ptr noundef %14, ptr noundef nonnull %5) #10
  %16 = call ptr (ptr, i32, ptr, i32, i32, ptr, ptr, ...) @proto_tree_add_guid_format_value(ptr noundef %2, i32 noundef %6, ptr noundef %0, i32 noundef %3, i32 noundef 16, ptr noundef nonnull %5, ptr noundef nonnull @.str.2503, ptr noundef %12, ptr noundef %15) #10
  call void @llvm.lifetime.end.p0(i64 16, ptr nonnull %5)
  %17 = and i32 %.045.i, 255
  %.not = icmp eq i32 %17, 7
  br i1 %.not, label %20, label %18

18:                                               ; preds = %mbim_dissect_service_id_uuid.exit
  %19 = call ptr (ptr, ptr, ptr, ptr, ...) @expert_add_info_format(ptr noundef nonnull %1, ptr noundef null, ptr noundef nonnull @ei_mbim_unexpected_uuid_value, ptr noundef nonnull @.str.2567) #10
  br label %20

20:                                               ; preds = %18, %mbim_dissect_service_id_uuid.exit
  ret void
}